target datalayout = "e-m:e-p270:32:32-p271:32:32-p272:64:64-i64:64-i128:128-f80:128-n8:16:32:64-S128"
target triple = "x86_64-pc-linux-gnu"

%"class.google::protobuf::internal::LogMessage" = type { i32, ptr, i32, %"class.std::__cxx11::basic_string" }
%"class.std::__cxx11::basic_string" = type { %"struct.std::__cxx11::basic_string<char>::_Alloc_hider", i64, %union.anon.0 }
%"struct.std::__cxx11::basic_string<char>::_Alloc_hider" = type { ptr }
%union.anon.0 = type { i64, [8 x i8] }
%"class.google::protobuf::internal::LogFinisher" = type { i8 }
%"struct.google::protobuf::internal::ExtensionInfo" = type { i8, i8, i8, %union.anon, ptr }
%union.anon = type { %"struct.google::protobuf::internal::ExtensionInfo::EnumValidityCheck" }
%"struct.google::protobuf::internal::ExtensionInfo::EnumValidityCheck" = type { ptr, ptr }

@.str = private unnamed_addr constant [43 x i8] c"third_party/protobuf-lite/extension_set.cc\00", align 1
@_ZN6google8protobuf8internal14WireFormatLite21kWireTypeForFieldTypeE = external constant [0 x i32], align 4
@.str.47 = private unnamed_addr constant [67 x i8] c"CHECK failed: type > 0 && type <= WireFormatLite::MAX_FIELD_TYPE: \00", align 1
@.str.48 = private unnamed_addr constant [18 x i8] c"can't reach here.\00", align 1

; Function Attrs: mustprogress uwtable
define internal noundef zeroext i1 @_ZN6google8protobuf8internal12_GLOBAL__N_111is_packableENS1_14WireFormatLite8WireTypeE(i32 noundef %0) #6 personality ptr @__gxx_personality_v0 {
  %2 = alloca i1, align 1
  %3 = alloca i32, align 4
  %4 = alloca %"class.google::protobuf::internal::LogMessage", align 8
  %5 = alloca ptr, align 8
  %6 = alloca i32, align 4
  %7 = alloca %"class.google::protobuf::internal::LogFinisher", align 1
  store i32 %0, ptr %3, align 4
  %8 = load i32, ptr %3, align 4
  switch i32 %8, label %11 [
    i32 0, label %9
    i32 1, label %9
    i32 5, label %9
    i32 2, label %10
    i32 3, label %10
    i32 4, label %10
  ]

9:                                                ; preds = %1, %1, %1
  store i1 true, ptr %2, align 1
  br label %19

10:                                               ; preds = %1, %1, %1
  store i1 false, ptr %2, align 1
  br label %19

11:                                               ; preds = %1
  call void @_ZN6google8protobuf8internal10LogMessageC1ENS0_8LogLevelEPKci(ptr noundef nonnull align 8 dereferenceable(56) %4, i32 noundef 3, ptr noundef @.str, i32 noundef 82)
  %12 = invoke noundef nonnull align 8 dereferenceable(56) ptr @_ZN6google8protobuf8internal10LogMessagelsEPKc(ptr noundef nonnull align 8 dereferenceable(56) %4, ptr noundef @.str.48)
          to label %13 unwind label %15

13:                                               ; preds = %11
  invoke void @_ZN6google8protobuf8internal11LogFinisheraSERNS1_10LogMessageE(ptr noundef nonnull align 1 dereferenceable(1) %7, ptr noundef nonnull align 8 dereferenceable(56) %12)
          to label %14 unwind label %15

14:                                               ; preds = %13
  call void @_ZN6google8protobuf8internal10LogMessageD1Ev(ptr noundef nonnull align 8 dereferenceable(56) %4) #3
  store i1 false, ptr %2, align 1
  br label %19

15:                                               ; preds = %13, %11
  %16 = landingpad { ptr, i32 }
          cleanup
  %17 = extractvalue { ptr, i32 } %16, 0
  store ptr %17, ptr %5, align 8
  %18 = extractvalue { ptr, i32 } %16, 1
  store i32 %18, ptr %6, align 4
  call void @_ZN6google8protobuf8internal10LogMessageD1Ev(ptr noundef nonnull align 8 dereferenceable(56) %4) #3
  br label %21

19:                                               ; preds = %14, %10, %9
  %20 = load i1, ptr %2, align 1
  ret i1 %20

21:                                               ; preds = %15
  %22 = load ptr, ptr %5, align 8
  %23 = load i32, ptr %6, align 4
  %24 = insertvalue { ptr, i32 } poison, ptr %22, 0
  %25 = insertvalue { ptr, i32 } %24, i32 %23, 1
  resume { ptr, i32 } %25
}

; Function Attrs: mustprogress nounwind uwtable
define linkonce_odr noundef i32 @_ZN6google8protobuf8internal14WireFormatLite20WireTypeForFieldTypeENS2_9FieldTypeE(i32 noundef %0) #4 comdat align 2 {
  %2 = alloca i32, align 4
  store i32 %0, ptr %2, align 4
  %3 = load i32, ptr %2, align 4
  %4 = zext i32 %3 to i64
  %5 = getelementptr inbounds [0 x i32], ptr @_ZN6google8protobuf8internal14WireFormatLite21kWireTypeForFieldTypeE, i64 0, i64 %4
  %6 = load i32, ptr %5, align 4
  ret i32 %6
}

; Function Attrs: mustprogress uwtable
define internal noundef i32 @_ZN6google8protobuf8internal12_GLOBAL__N_19real_typeEh(i8 noundef zeroext %0) #6 personality ptr @__gxx_personality_v0 {
  %2 = alloca i8, align 1
  %3 = alloca %"class.google::protobuf::internal::LogMessage", align 8
  %4 = alloca i1, align 1
  %5 = alloca ptr, align 8
  %6 = alloca i32, align 4
  %7 = alloca %"class.google::protobuf::internal::LogFinisher", align 1
  store i8 %0, ptr %2, align 1
  br label %8

8:                                                ; preds = %25, %1
  br i1 false, label %9, label %33

9:                                                ; preds = %8
  %10 = load i8, ptr %2, align 1
  %11 = zext i8 %10 to i32
  %12 = icmp sgt i32 %11, 0
  store i1 false, ptr %4, align 1
  br i1 %12, label %13, label %18

13:                                               ; preds = %9
  %14 = load i8, ptr %2, align 1
  %15 = zext i8 %14 to i32
  %16 = icmp sle i32 %15, 18
  br i1 %16, label %17, label %18

17:                                               ; preds = %13
  br label %22

18:                                               ; preds = %13, %9
  call void @_ZN6google8protobuf8internal10LogMessageC1ENS0_8LogLevelEPKci(ptr noundef nonnull align 8 dereferenceable(56) %3, i32 noundef 3, ptr noundef @.str, i32 noundef 60)
  store i1 true, ptr %4, align 1
  %19 = invoke noundef nonnull align 8 dereferenceable(56) ptr @_ZN6google8protobuf8internal10LogMessagelsEPKc(ptr noundef nonnull align 8 dereferenceable(56) %3, ptr noundef @.str.47)
          to label %20 unwind label %26

20:                                               ; preds = %18
  invoke void @_ZN6google8protobuf8internal11LogFinisheraSERNS1_10LogMessageE(ptr noundef nonnull align 1 dereferenceable(1) %7, ptr noundef nonnull align 8 dereferenceable(56) %19)
          to label %21 unwind label %26

21:                                               ; preds = %20
  br label %22

22:                                               ; preds = %21, %17
  %23 = load i1, ptr %4, align 1
  br i1 %23, label %24, label %25

24:                                               ; preds = %22
  call void @_ZN6google8protobuf8internal10LogMessageD1Ev(ptr noundef nonnull align 8 dereferenceable(56) %3) #3
  br label %25

25:                                               ; preds = %24, %22
  br label %8, !llvm.loop !163

26:                                               ; preds = %20, %18
  %27 = landingpad { ptr, i32 }
          cleanup
  %28 = extractvalue { ptr, i32 } %27, 0
  store ptr %28, ptr %5, align 8
  %29 = extractvalue { ptr, i32 } %27, 1
  store i32 %29, ptr %6, align 4
  %30 = load i1, ptr %4, align 1
  br i1 %30, label %31, label %32

31:                                               ; preds = %26
  call void @_ZN6google8protobuf8internal10LogMessageD1Ev(ptr noundef nonnull align 8 dereferenceable(56) %3) #3
  br label %32

32:                                               ; preds = %31, %26
  br label %36

33:                                               ; preds = %8
  %34 = load i8, ptr %2, align 1
  %35 = zext i8 %34 to i32
  ret i32 %35

36:                                               ; preds = %32
  %37 = load ptr, ptr %5, align 8
  %38 = load i32, ptr %6, align 4
  %39 = insertvalue { ptr, i32 } poison, ptr %37, 0
  %40 = insertvalue { ptr, i32 } %39, i32 %38, 1
  resume { ptr, i32 } %40
}

; Function Attrs: mustprogress uwtable
define noundef zeroext i1 @_ZN6google8protobuf8internal12ExtensionSet32FindExtensionInfoFromFieldNumberEiiPNS1_15ExtensionFinderEPNS1_13ExtensionInfoEPb(ptr noundef nonnull align 8 dereferenceable(24) %0, i32 noundef %1, i32 noundef %2, ptr noundef %3, ptr noundef %4, ptr noundef %5) #6 align 2 {
  %7 = alloca i1, align 1
  %8 = alloca ptr, align 8
  %9 = alloca i32, align 4
  %10 = alloca i32, align 4
  %11 = alloca ptr, align 8
  %12 = alloca ptr, align 8
  %13 = alloca ptr, align 8
  %14 = alloca i32, align 4
  store ptr %0, ptr %8, align 8
  store i32 %1, ptr %9, align 4
  store i32 %2, ptr %10, align 4
  store ptr %3, ptr %11, align 8
  store ptr %4, ptr %12, align 8
  store ptr %5, ptr %13, align 8
  %15 = load ptr, ptr %11, align 8
  %16 = load i32, ptr %10, align 4
  %17 = load ptr, ptr %12, align 8
  %18 = load ptr, ptr %15, align 8
  %19 = getelementptr inbounds ptr, ptr %18, i64 2
  %20 = load ptr, ptr %19, align 8
  %21 = call noundef zeroext i1 %20(ptr noundef nonnull align 8 dereferenceable(8) %15, i32 noundef %16, ptr noundef %17)
  br i1 %21, label %23, label %22

22:                                               ; preds = %6
  store i1 false, ptr %7, align 1
  br label %46

23:                                               ; preds = %6
  %24 = load ptr, ptr %12, align 8
  %25 = getelementptr inbounds %"struct.google::protobuf::internal::ExtensionInfo", ptr %24, i32 0, i32 0
  %26 = load i8, ptr %25, align 8
  %27 = call noundef i32 @_ZN6google8protobuf8internal12_GLOBAL__N_19real_typeEh(i8 noundef zeroext %26)
  %28 = call noundef i32 @_ZN6google8protobuf8internal14WireFormatLite20WireTypeForFieldTypeENS2_9FieldTypeE(i32 noundef %27)
  store i32 %28, ptr %14, align 4
  %29 = load ptr, ptr %13, align 8
  store i8 0, ptr %29, align 1
  %30 = load ptr, ptr %12, align 8
  %31 = getelementptr inbounds %"struct.google::protobuf::internal::ExtensionInfo", ptr %30, i32 0, i32 1
  %32 = load i8, ptr %31, align 1
  %33 = trunc i8 %32 to i1
  br i1 %33, label %34, label %42

34:                                               ; preds = %23
  %35 = load i32, ptr %9, align 4
  %36 = icmp eq i32 %35, 2
  br i1 %36, label %37, label %42

37:                                               ; preds = %34
  %38 = load i32, ptr %14, align 4
  %39 = call noundef zeroext i1 @_ZN6google8protobuf8internal12_GLOBAL__N_111is_packableENS1_14WireFormatLite8WireTypeE(i32 noundef %38)
  br i1 %39, label %40, label %42

40:                                               ; preds = %37
  %41 = load ptr, ptr %13, align 8
  store i8 1, ptr %41, align 1
  store i1 true, ptr %7, align 1
  br label %46

42:                                               ; preds = %37, %34, %23
  %43 = load i32, ptr %14, align 4
  %44 = load i32, ptr %9, align 4
  %45 = icmp eq i32 %43, %44
  store i1 %45, ptr %7, align 1
  br label %46

46:                                               ; preds = %42, %40, %22
  %47 = load i1, ptr %7, align 1
  ret i1 %47
}