; Function Attrs: mustprogress uwtable
define noundef zeroext i1 @_ZN6google8protobuf8internal12ExtensionSet32FindExtensionInfoFromFieldNumberEiiPNS1_15ExtensionFinderEPNS1_13ExtensionInfoEPb(ptr nocapture nonnull readnone align 8 %0, i32 noundef %1, i32 noundef %2, ptr noundef %3, ptr noundef %4, ptr nocapture noundef writeonly %5) local_unnamed_addr #8 align 2 personality ptr @__gxx_personality_v0 {
  %7 = alloca %"class.google::protobuf::internal::LogMessage", align 8
  %8 = alloca %"class.google::protobuf::internal::LogFinisher", align 1
  %9 = load ptr, ptr %3, align 8
  %10 = getelementptr inbounds i8, ptr %9, i64 16
  %11 = load ptr, ptr %10, align 8
  %12 = tail call noundef zeroext i1 %11(ptr noundef nonnull align 8 dereferenceable(8) %3, i32 noundef %2, ptr noundef %4)
  br i1 %12, label %13, label %32

13:                                               ; preds = %6
  %14 = load i8, ptr %4, align 8
  %15 = zext i8 %14 to i64
  %16 = getelementptr inbounds [0 x i32], ptr @_ZN6google8protobuf8internal14WireFormatLite21kWireTypeForFieldTypeE, i64 0, i64 %15
  %17 = load i32, ptr %16, align 4
  store i8 0, ptr %5, align 1
  %18 = getelementptr inbounds i8, ptr %4, i64 1
  %19 = load i8, ptr %18, align 1
  %20 = trunc i8 %19 to i1
  %21 = icmp eq i32 %1, 2
  %or.cond = and i1 %21, %20
  br i1 %or.cond, label %22, label %30

22:                                               ; preds = %13
  call void @llvm.lifetime.start.p0(i64 56, ptr nonnull %7)
  call void @llvm.lifetime.start.p0(i64 1, ptr nonnull %8)
  switch i32 %17, label %23 [
    i32 0, label %29
    i32 1, label %29
    i32 5, label %29
    i32 2, label %_ZN6google8protobuf8internal12_GLOBAL__N_111is_packableENS1_14WireFormatLite8WireTypeE.exit.thread
    i32 3, label %_ZN6google8protobuf8internal12_GLOBAL__N_111is_packableENS1_14WireFormatLite8WireTypeE.exit.thread
    i32 4, label %_ZN6google8protobuf8internal12_GLOBAL__N_111is_packableENS1_14WireFormatLite8WireTypeE.exit.thread
  ]

23:                                               ; preds = %22
  call void @_ZN6google8protobuf8internal10LogMessageC1ENS0_8LogLevelEPKci(ptr noundef nonnull align 8 dereferenceable(56) %7, i32 noundef 3, ptr noundef nonnull @.str, i32 noundef 82)
  %24 = invoke noundef nonnull align 8 dereferenceable(56) ptr @_ZN6google8protobuf8internal10LogMessagelsEPKc(ptr noundef nonnull align 8 dereferenceable(56) %7, ptr noundef nonnull @.str.48)
          to label %25 unwind label %27

25:                                               ; preds = %23
  invoke void @_ZN6google8protobuf8internal11LogFinisheraSERNS1_10LogMessageE(ptr noundef nonnull align 1 dereferenceable(1) %8, ptr noundef nonnull align 8 dereferenceable(56) %24)
          to label %26 unwind label %27

26:                                               ; preds = %25
  call void @_ZN6google8protobuf8internal10LogMessageD1Ev(ptr noundef nonnull align 8 dereferenceable(56) %7) #23
  br label %_ZN6google8protobuf8internal12_GLOBAL__N_111is_packableENS1_14WireFormatLite8WireTypeE.exit.thread

27:                                               ; preds = %25, %23
  %28 = landingpad { ptr, i32 }
          cleanup
  call void @_ZN6google8protobuf8internal10LogMessageD1Ev(ptr noundef nonnull align 8 dereferenceable(56) %7) #23
  resume { ptr, i32 } %28

_ZN6google8protobuf8internal12_GLOBAL__N_111is_packableENS1_14WireFormatLite8WireTypeE.exit.thread: ; preds = %26, %22, %22, %22
  call void @llvm.lifetime.end.p0(i64 56, ptr nonnull %7)
  call void @llvm.lifetime.end.p0(i64 1, ptr nonnull %8)
  br label %30

29:                                               ; preds = %22, %22, %22
  call void @llvm.lifetime.end.p0(i64 56, ptr nonnull %7)
  call void @llvm.lifetime.end.p0(i64 1, ptr nonnull %8)
  store i8 1, ptr %5, align 1
  br label %32

30:                                               ; preds = %_ZN6google8protobuf8internal12_GLOBAL__N_111is_packableENS1_14WireFormatLite8WireTypeE.exit.thread, %13
  %31 = icmp eq i32 %17, %1
  br label %32

32:                                               ; preds = %6, %30, %29
  %.0 = phi i1 [ true, %29 ], [ %31, %30 ], [ false, %6 ]
  ret i1 %.0
}